(dp0
Vdomain
p1
V.zhihu.com
p2
sVsecure
p3
I00
sVvalue
p4
VID=fce98fd44345e22e:T=1553669511:S=ALNI_MYDKA7nqEXgX4ZGjUjXupPaZCGbaQ
p5
sVexpiry
p6
I1616741511
sVpath
p7
V/
p8
sVhttpOnly
p9
I00
sVname
p10
V__gads
p11
s.