(dp0
Vdomain
p1
V.zhihu.com
p2
sVsecure
p3
I00
sVvalue
p4
V51854390.1557392763.1.1.utmcsr=(direct)|utmccn=(direct)|utmcmd=(none)
p5
sVexpiry
p6
I1573160776
sVpath
p7
V/
p8
sVhttpOnly
p9
I00
sVname
p10
V__utmz
p11
s.