(dp0
Vdomain
p1
V.zhihu.com
p2
sVsecure
p3
I00
sVvalue
p4
V"2|1:0|10:1553668087|14:capsion_ticket|44:Nzg0MzFlMDQxNWIwNDZkMWIwMDgwNThhYjQ2ZmY4NmM=|b2a1dd7e7f09d1fc134dc99031a1d9f89dc9f8375f0c453d04eb27da03855b44"
p5
sVexpiry
p6
F1556260087.911411
sVpath
p7
V/
p8
sVhttpOnly
p9
I01
sVname
p10
Vcapsion_ticket
p11
s.