(dp0
Vdomain
p1
V.zhihu.com
p2
sVsecure
p3
I00
sVvalue
p4
V"2|1:0|10:1558007309|14:capsion_ticket|44:OGFhMDc5YTliNmNkNDQzM2EyMjQ1NTk0ODcxNGMwZWE=|c0aff4f56bbf8f65f1454daf50b3ea04cf5a68ef7529b4a7e8a4f3ced2263d83"
p5
sVexpiry
p6
F1560599309.13201
sVpath
p7
V/
p8
sVhttpOnly
p9
I01
sVname
p10
Vcapsion_ticket
p11
s.