(dp0
Vdomain
p1
V.zhihu.com
p2
sVsecure
p3
I00
sVvalue
p4
V"2|1:0|10:1557403816|14:capsion_ticket|44:ZGM2MDNmZWQ5MzNiNDM5Yzk1MzAxYTllMTFmYzE1YWI=|a94806162d82e974a837ec3e69cf9b993eec759310697ea5e99f8b7653d8fe65"
p5
sVexpiry
p6
F1559995816.450059
sVpath
p7
V/
p8
sVhttpOnly
p9
I01
sVname
p10
Vcapsion_ticket
p11
s.