(dp0
Vdomain
p1
V.zhihu.com
p2
sVsecure
p3
I00
sVvalue
p4
V"AFAmKBOJLw-PTuviAw7BKy1Ury-GVznOqEE=|1553668087"
p5
sVexpiry
p6
F1648276087.732871
sVpath
p7
V/
p8
sVhttpOnly
p9
I00
sVname
p10
Vd_c0
p11
s.