(dp0
Vdomain
p1
V.zhihu.com
p2
sVsecure
p3
I00
sVvalue
p4
V"AEAo4-MxcA-PTiE8kIBwlWYSt0zN_EKDdzc=|1558007308"
p5
sVexpiry
p6
F1652615308.906518
sVpath
p7
V/
p8
sVhttpOnly
p9
I00
sVname
p10
Vd_c0
p11
s.