(dp0
Vdomain
p1
V.zhihu.com
p2
sVsecure
p3
I00
sVvalue
p4
Vefe26b629cdb4499a1375e75683b94e2|1558007322000|1558007322000
p5
sVexpiry
p6
F1652615322.200679
sVpath
p7
V/
p8
sVhttpOnly
p9
I00
sVname
p10
Vq_c1
p11
s.