(dp0
Vdomain
p1
V.zhihu.com
p2
sVsecure
p3
I00
sVvalue
p4
V94d1e16bd148495fb57516a25b6343ac|1553668098000|1553668098000
p5
sVexpiry
p6
F1648276098.757567
sVpath
p7
V/
p8
sVhttpOnly
p9
I00
sVname
p10
Vq_c1
p11
s.