(dp0
Vdomain
p1
V.zhihu.com
p2
sVsecure
p3
I00
sVvalue
p4
V"2|1:0|10:1557403821|4:z_c0|92:Mi4xZGFDT0F3QUFBQUFBQU9rTEVpWm1EeVlBQUFCZ0FsVk5yV2JCWFFEcmdyNGd4ZUwwdHVucXlsUEVEZW5zMm9NWlNB|335c1b80d9f596362e5a76214b0aedca4c32b0f5e99e22e510718c07611bd72c"
p5
sVexpiry
p6
F1572955820.942778
sVpath
p7
V/
p8
sVhttpOnly
p9
I01
sVname
p10
Vz_c0
p11
s.