(dp0
Vdomain
p1
V.zhihu.com
p2
sVsecure
p3
I00
sVvalue
p4
V"2|1:0|10:1558007320|4:z_c0|92:Mi4xZGFDT0F3QUFBQUFBUUNqajR6RndEeVlBQUFCZ0FsVk5HSnpLWFFBdHdIZm9Jc3lyVGdScGFYNUxSek8zN0FZaTZ3|5432de8f195cba12c2a6f7171da6e753c46eeff571a3dddee81b5276a5c4a0d5"
p5
sVexpiry
p6
F1573559320.865074
sVpath
p7
V/
p8
sVhttpOnly
p9
I01
sVname
p10
Vz_c0
p11
s.