(dp0
Vdomain
p1
V.zhihu.com
p2
sVsecure
p3
I00
sVvalue
p4
V"2|1:0|10:1553668097|4:z_c0|92:Mi4xZGFDT0F3QUFBQUFBVUNZb0U0a3ZEeVlBQUFCZ0FsVk5BV2FJWFFCWnE2eklKNG5IN2tkeTFDTE94aHhTTWlsdFpn|ce3ad33e4474e5fd8fde98137f48015b90d350beade10da01a01447870a38176"
p5
sVexpiry
p6
F1569220097.59137
sVpath
p7
V/
p8
sVhttpOnly
p9
I01
sVname
p10
Vz_c0
p11
s.