(dp0
Vdomain
p1
V.zhihu.com
p2
sVsecure
p3
I00
sVvalue
p4
VID=9bd48d392902420d:T=1557391712:S=ALNI_MZ4mROQpgebM21ycNUtGAB47inDQg
p5
sVexpiry
p6
I1620463712
sVpath
p7
V/
p8
sVhttpOnly
p9
I00
sVname
p10
V__gads
p11
s.