(dp0
Vdomain
p1
V.zhihu.com
p2
sVsecure
p3
I00
sVvalue
p4
V51854390.1673171301.1557392763.1557392763.1557392763.1
p5
sVexpiry
p6
I1620464776
sVpath
p7
V/
p8
sVhttpOnly
p9
I00
sVname
p10
V__utma
p11
s.