(dp0
Vdomain
p1
V.zhihu.com
p2
sVsecure
p3
I00
sVvalue
p4
V"2|1:0|10:1557333123|14:capsion_ticket|44:NGUzOTNlYjBhMjYwNDRjODhmYmM4ZjA2MzVmNWUwN2I=|99fe63ba06cf2106583dbc34177f6d6fea7232d7b290e31280287cf6788225e8"
p5
sVexpiry
p6
F1559925123.55388
sVpath
p7
V/
p8
sVhttpOnly
p9
I01
sVname
p10
Vcapsion_ticket
p11
s.