(dp0
Vdomain
p1
V.zhihu.com
p2
sVsecure
p3
I00
sVvalue
p4
V"AADpCxImZg-PTranc9y9GdKRAC1LvvIUwzg=|1557333121"
p5
sVexpiry
p6
F1651941121.873451
sVpath
p7
V/
p8
sVhttpOnly
p9
I00
sVname
p10
Vd_c0
p11
s.