(dp0
Vdomain
p1
V.zhihu.com
p2
sVsecure
p3
I00
sVvalue
p4
Vd1a6dff98d4d455ca1750fdcbc3953ae|1557333153000|1557333153000
p5
sVexpiry
p6
F1651941153.5391
sVpath
p7
V/
p8
sVhttpOnly
p9
I00
sVname
p10
Vq_c1
p11
s.