(dp0
Vdomain
p1
V.zhihu.com
p2
sVsecure
p3
I00
sVvalue
p4
V"2|1:0|10:1557333140|4:z_c0|92:Mi4xZGFDT0F3QUFBQUFBQU9rTEVpWm1EeVlBQUFCZ0FsVk5sRkxBWFFCSGZDY3pMU1hOaDJ4T0pZem1JNmVzYlJuYmJR|b6ad00b62519391360bd6f64c2bfcac02f94fb3cc1797092e8feedac0321ddcc"
p5
sVexpiry
p6
F1572885140.026363
sVpath
p7
V/
p8
sVhttpOnly
p9
I01
sVname
p10
Vz_c0
p11
s.